(lp1
S'http://www.indeed.com/rc/clk?jk=7c77355609e0aae4'
p2
aS'http://www.indeed.com/rc/clk?jk=88c2d3973e33de7f'
p3
aS'http://www.indeed.com/rc/clk?jk=07f1b46928f006b0'
p4
aS'http://www.indeed.com/rc/clk?jk=156f9618f7af45cd'
p5
aS'http://www.indeed.com/rc/clk?jk=4438623155fcce77'
p6
aS'http://www.indeed.com/rc/clk?jk=48176099e5fb2b2d'
p7
aS'http://www.indeed.com/rc/clk?jk=95ec4a3aca0ad363'
p8
aS'http://www.indeed.com/rc/clk?jk=0b4a5a3379ca5450'
p9
aS'http://www.indeed.com/rc/clk?jk=26bc04850604621e'
p10
aS'http://www.indeed.com/rc/clk?jk=6ca41a9918287f12'
p11
aS'http://www.indeed.com/rc/clk?jk=b0114865bcd4e31e'
p12
aS'http://www.indeed.com/rc/clk?jk=936fb8ea0311ea89'
p13
aS'http://www.indeed.com/rc/clk?jk=2b36c3436e979f79'
p14
aS'http://www.indeed.com/rc/clk?jk=d100e9f517b50a7e'
p15
aS'http://www.indeed.com/rc/clk?jk=e100481d2933914c'
p16
aS'http://www.indeed.com/rc/clk?jk=9518d2abeb33e4a2'
p17
aS'http://www.indeed.com/rc/clk?jk=fae72cf35fbb821b'
p18
aS'http://www.indeed.com/rc/clk?jk=bd4351891509542e'
p19
aS'http://www.indeed.com/rc/clk?jk=08e62497acc48c9f'
p20
aS'http://www.indeed.com/rc/clk?jk=41ae59dff57bc12f'
p21
aS'http://www.indeed.com/rc/clk?jk=b6f91146072b6ab0'
p22
aS'http://www.indeed.com/rc/clk?jk=60b1e772358e2a2e'
p23
aS'http://www.indeed.com/rc/clk?jk=d4cc51929459816c'
p24
aS'http://www.indeed.com/rc/clk?jk=2a7f9b0e30b70f5e'
p25
a.